; Function Attrs: nounwind uwtable
define ptr @l_Lean_MessageData_ofLazyM(ptr noundef %0, ptr noundef %1) local_unnamed_addr #0 {
  tail call void @lean_inc_heartbeat() #6
  %3 = tail call noalias ptr @mi_malloc_small(i64 noundef 32) #6
  %4 = icmp eq ptr %3, null
  br i1 %4, label %5, label %lean_alloc_closure.exit

5:                                                ; preds = %2
  tail call void @lean_internal_panic_out_of_memory() #7
  unreachable

lean_alloc_closure.exit:                          ; preds = %2
  %6 = getelementptr inbounds nuw i8, ptr %3, i64 4
  store i32 1, ptr %3, align 4, !tbaa !4
  store i32 -184549344, ptr %6, align 4
  %7 = getelementptr inbounds nuw i8, ptr %3, i64 8
  store ptr @l_Lean_MessageData_ofLazyM___lambda__1, ptr %7, align 8, !tbaa !9
  %8 = getelementptr inbounds nuw i8, ptr %3, i64 16
  store i16 3, ptr %8, align 8, !tbaa !15
  %9 = getelementptr inbounds nuw i8, ptr %3, i64 18
  store i16 1, ptr %9, align 2, !tbaa !15
  %10 = getelementptr inbounds nuw i8, ptr %3, i64 24
  store ptr %0, ptr %10, align 8, !tbaa !9
  tail call void @lean_inc_heartbeat() #6
  %11 = tail call noalias ptr @mi_malloc_small(i64 noundef 32) #6
  %12 = icmp eq ptr %11, null
  br i1 %12, label %13, label %lean_alloc_closure.exit8

13:                                               ; preds = %lean_alloc_closure.exit
  tail call void @lean_internal_panic_out_of_memory() #7
  unreachable

lean_alloc_closure.exit8:                         ; preds = %lean_alloc_closure.exit
  %14 = getelementptr inbounds nuw i8, ptr %11, i64 4
  store i32 1, ptr %11, align 4, !tbaa !4
  store i32 -184549344, ptr %14, align 4
  %15 = getelementptr inbounds nuw i8, ptr %11, i64 8
  store ptr @l_Lean_MessageData_ofLazyM___lambda__2___boxed, ptr %15, align 8, !tbaa !9
  %16 = getelementptr inbounds nuw i8, ptr %11, i64 16
  store i16 2, ptr %16, align 8, !tbaa !15
  %17 = getelementptr inbounds nuw i8, ptr %11, i64 18
  store i16 1, ptr %17, align 2, !tbaa !15
  %18 = getelementptr inbounds nuw i8, ptr %11, i64 24
  store ptr %1, ptr %18, align 8, !tbaa !9
  %19 = load ptr, ptr @l_Lean_MessageData_ofFormatWithInfosM___closed__2, align 8, !tbaa !9
  %20 = tail call ptr @l_Lean_MessageData_lazy(ptr noundef nonnull %3, ptr noundef nonnull %11, ptr noundef %19) #6
  ret ptr %20
}